target datalayout = "e-m:e-p270:32:32-p271:32:32-p272:64:64-i64:64-i128:128-f80:128-n8:16:32:64-S128"
target triple = "x86_64-pc-linux-gnu"

%struct.stat = type { i64, i64, i64, i32, i32, i32, i32, i64, i64, i64, i64, %struct.timespec, %struct.timespec, %struct.timespec, [3 x i64] }
%struct.timespec = type { i64, i64 }

; Function Attrs: inlinehint nounwind uwtable
define internal i32 @git_is_dir_sep(i32 noundef %0) #7 {
  %2 = alloca i32, align 4
  store i32 %0, ptr %2, align 4, !tbaa !43
  %3 = load i32, ptr %2, align 4, !tbaa !43
  %4 = icmp eq i32 %3, 47
  %5 = zext i1 %4 to i32
  ret i32 %5
}

; Function Attrs: inlinehint nounwind uwtable
define internal i32 @git_offset_1st_component(ptr noundef %0) #7 {
  %2 = alloca ptr, align 8
  store ptr %0, ptr %2, align 8, !tbaa !12
  %3 = load ptr, ptr %2, align 8, !tbaa !12
  %4 = getelementptr inbounds i8, ptr %3, i64 0
  %5 = load i8, ptr %4, align 1, !tbaa !58
  %6 = sext i8 %5 to i32
  %7 = call i32 @git_is_dir_sep(i32 noundef %6)
  ret i32 %7
}

; Function Attrs: nounwind uwtable
define internal i32 @safe_create_leading_directories_1(ptr noundef %0, i32 noundef %1) #0 {
  %3 = alloca ptr, align 8
  %4 = alloca i32, align 4
  %5 = alloca ptr, align 8
  %6 = alloca i32, align 4
  %7 = alloca %struct.stat, align 8
  %8 = alloca ptr, align 8
  %9 = alloca i8, align 1
  %10 = alloca i32, align 4
  store ptr %0, ptr %3, align 8, !tbaa !12
  store i32 %1, ptr %4, align 4, !tbaa !43
  call void @llvm.lifetime.start.p0(i64 8, ptr %5) #14
  %11 = load ptr, ptr %3, align 8, !tbaa !12
  %12 = load ptr, ptr %3, align 8, !tbaa !12
  %13 = call i32 @git_offset_1st_component(ptr noundef %12)
  %14 = sext i32 %13 to i64
  %15 = getelementptr inbounds i8, ptr %11, i64 %14
  store ptr %15, ptr %5, align 8, !tbaa !12
  call void @llvm.lifetime.start.p0(i64 4, ptr %6) #14
  store i32 0, ptr %6, align 4, !tbaa !43
  br label %16

16:                                               ; preds = %121, %2
  %17 = load i32, ptr %6, align 4, !tbaa !43
  %18 = icmp eq i32 %17, 0
  br i1 %18, label %19, label %22

19:                                               ; preds = %16
  %20 = load ptr, ptr %5, align 8, !tbaa !12
  %21 = icmp ne ptr %20, null
  br label %22

22:                                               ; preds = %19, %16
  %23 = phi i1 [ false, %16 ], [ %21, %19 ]
  br i1 %23, label %24, label %122

24:                                               ; preds = %22
  call void @llvm.lifetime.start.p0(i64 144, ptr %7) #14
  call void @llvm.lifetime.start.p0(i64 8, ptr %8) #14
  %25 = load ptr, ptr %5, align 8, !tbaa !12
  store ptr %25, ptr %8, align 8, !tbaa !12
  call void @llvm.lifetime.start.p0(i64 1, ptr %9) #14
  br label %26

26:                                               ; preds = %40, %24
  %27 = load ptr, ptr %8, align 8, !tbaa !12
  %28 = load i8, ptr %27, align 1, !tbaa !58
  %29 = sext i8 %28 to i32
  %30 = icmp ne i32 %29, 0
  br i1 %30, label %31, label %38

31:                                               ; preds = %26
  %32 = load ptr, ptr %8, align 8, !tbaa !12
  %33 = load i8, ptr %32, align 1, !tbaa !58
  %34 = sext i8 %33 to i32
  %35 = call i32 @git_is_dir_sep(i32 noundef %34)
  %36 = icmp ne i32 %35, 0
  %37 = xor i1 %36, true
  br label %38

38:                                               ; preds = %31, %26
  %39 = phi i1 [ false, %26 ], [ %37, %31 ]
  br i1 %39, label %40, label %43

40:                                               ; preds = %38
  %41 = load ptr, ptr %8, align 8, !tbaa !12
  %42 = getelementptr inbounds nuw i8, ptr %41, i32 1
  store ptr %42, ptr %8, align 8, !tbaa !12
  br label %26, !llvm.loop !59

43:                                               ; preds = %38
  %44 = load ptr, ptr %8, align 8, !tbaa !12
  %45 = load i8, ptr %44, align 1, !tbaa !58
  %46 = icmp ne i8 %45, 0
  br i1 %46, label %48, label %47

47:                                               ; preds = %43
  store i32 3, ptr %10, align 4
  br label %119

48:                                               ; preds = %43
  %49 = load ptr, ptr %8, align 8, !tbaa !12
  %50 = getelementptr inbounds i8, ptr %49, i64 1
  store ptr %50, ptr %5, align 8, !tbaa !12
  br label %51

51:                                               ; preds = %57, %48
  %52 = load ptr, ptr %5, align 8, !tbaa !12
  %53 = load i8, ptr %52, align 1, !tbaa !58
  %54 = sext i8 %53 to i32
  %55 = call i32 @git_is_dir_sep(i32 noundef %54)
  %56 = icmp ne i32 %55, 0
  br i1 %56, label %57, label %60

57:                                               ; preds = %51
  %58 = load ptr, ptr %5, align 8, !tbaa !12
  %59 = getelementptr inbounds nuw i8, ptr %58, i32 1
  store ptr %59, ptr %5, align 8, !tbaa !12
  br label %51, !llvm.loop !60

60:                                               ; preds = %51
  %61 = load ptr, ptr %5, align 8, !tbaa !12
  %62 = load i8, ptr %61, align 1, !tbaa !58
  %63 = icmp ne i8 %62, 0
  br i1 %63, label %65, label %64

64:                                               ; preds = %60
  store i32 3, ptr %10, align 4
  br label %119

65:                                               ; preds = %60
  %66 = load ptr, ptr %8, align 8, !tbaa !12
  %67 = load i8, ptr %66, align 1, !tbaa !58
  store i8 %67, ptr %9, align 1, !tbaa !58
  %68 = load ptr, ptr %8, align 8, !tbaa !12
  store i8 0, ptr %68, align 1, !tbaa !58
  %69 = load ptr, ptr %3, align 8, !tbaa !12
  %70 = call i32 @stat64(ptr noundef %69, ptr noundef %7) #14
  %71 = icmp ne i32 %70, 0
  br i1 %71, label %80, label %72

72:                                               ; preds = %65
  %73 = getelementptr inbounds nuw %struct.stat, ptr %7, i32 0, i32 3
  %74 = load i32, ptr %73, align 8, !tbaa !52
  %75 = and i32 %74, 61440
  %76 = icmp eq i32 %75, 16384
  br i1 %76, label %79, label %77

77:                                               ; preds = %72
  %78 = call ptr @__errno_location() #16
  store i32 20, ptr %78, align 4, !tbaa !43
  store i32 -3, ptr %6, align 4, !tbaa !43
  br label %79

79:                                               ; preds = %77, %72
  br label %116

80:                                               ; preds = %65
  %81 = load ptr, ptr %3, align 8, !tbaa !12
  %82 = call i32 @mkdir(ptr noundef %81, i32 noundef 511) #14
  %83 = icmp ne i32 %82, 0
  br i1 %83, label %84, label %106

84:                                               ; preds = %80
  %85 = call ptr @__errno_location() #16
  %86 = load i32, ptr %85, align 4, !tbaa !43
  %87 = icmp eq i32 %86, 17
  br i1 %87, label %88, label %98

88:                                               ; preds = %84
  %89 = load ptr, ptr %3, align 8, !tbaa !12
  %90 = call i32 @stat64(ptr noundef %89, ptr noundef %7) #14
  %91 = icmp ne i32 %90, 0
  br i1 %91, label %98, label %92

92:                                               ; preds = %88
  %93 = getelementptr inbounds nuw %struct.stat, ptr %7, i32 0, i32 3
  %94 = load i32, ptr %93, align 8, !tbaa !52
  %95 = and i32 %94, 61440
  %96 = icmp eq i32 %95, 16384
  br i1 %96, label %97, label %98

97:                                               ; preds = %92
  br label %105

98:                                               ; preds = %92, %88, %84
  %99 = call ptr @__errno_location() #16
  %100 = load i32, ptr %99, align 4, !tbaa !43
  %101 = icmp eq i32 %100, 2
  br i1 %101, label %102, label %103

102:                                              ; preds = %98
  store i32 -4, ptr %6, align 4, !tbaa !43
  br label %104

103:                                              ; preds = %98
  store i32 -1, ptr %6, align 4, !tbaa !43
  br label %104

104:                                              ; preds = %103, %102
  br label %105

105:                                              ; preds = %104, %97
  br label %115

106:                                              ; preds = %80
  %107 = load i32, ptr %4, align 4, !tbaa !43
  %108 = icmp ne i32 %107, 0
  br i1 %108, label %109, label %114

109:                                              ; preds = %106
  %110 = load ptr, ptr %3, align 8, !tbaa !12
  %111 = call i32 @adjust_shared_perm(ptr noundef %110)
  %112 = icmp ne i32 %111, 0
  br i1 %112, label %113, label %114

113:                                              ; preds = %109
  store i32 -2, ptr %6, align 4, !tbaa !43
  br label %114

114:                                              ; preds = %113, %109, %106
  br label %115

115:                                              ; preds = %114, %105
  br label %116

116:                                              ; preds = %115, %79
  %117 = load i8, ptr %9, align 1, !tbaa !58
  %118 = load ptr, ptr %8, align 8, !tbaa !12
  store i8 %117, ptr %118, align 1, !tbaa !58
  store i32 0, ptr %10, align 4
  br label %119

119:                                              ; preds = %116, %64, %47
  call void @llvm.lifetime.end.p0(i64 1, ptr %9) #14
  call void @llvm.lifetime.end.p0(i64 8, ptr %8) #14
  call void @llvm.lifetime.end.p0(i64 144, ptr %7) #14
  %120 = load i32, ptr %10, align 4
  switch i32 %120, label %124 [
    i32 0, label %121
    i32 3, label %122
  ]

121:                                              ; preds = %119
  br label %16, !llvm.loop !61

122:                                              ; preds = %119, %22
  %123 = load i32, ptr %6, align 4, !tbaa !43
  store i32 1, ptr %10, align 4
  call void @llvm.lifetime.end.p0(i64 4, ptr %6) #14
  call void @llvm.lifetime.end.p0(i64 8, ptr %5) #14
  ret i32 %123

124:                                              ; preds = %119
  unreachable
}