; Function Attrs: nounwind uwtable
define internal fastcc range(i32 -4, 1) i32 @safe_create_leading_directories_1(ptr noundef %0, i32 noundef range(i32 0, 2) %1) unnamed_addr #1 {
  %3 = alloca %struct.stat, align 8
  %.val = load i8, ptr %0, align 1, !tbaa !51
  %4 = icmp eq i8 %.val, 47
  %5 = zext i1 %4 to i64
  %6 = getelementptr inbounds nuw i8, ptr %0, i64 %5
  %7 = getelementptr inbounds nuw i8, ptr %3, i64 24
  %.not35 = icmp eq i32 %1, 0
  br i1 %.not35, label %.split.us, label %.split

.split.us:                                        ; preds = %2, %34
  %.02350.us = phi ptr [ %.2.us, %34 ], [ %6, %2 ]
  call void @llvm.lifetime.start.p0(i64 144, ptr nonnull %3) #27
  br label %8

8:                                                ; preds = %35, %.split.us
  %.024.us = phi ptr [ %.02350.us, %.split.us ], [ %36, %35 ]
  %9 = load i8, ptr %.024.us, align 1, !tbaa !51
  switch i8 %9, label %35 [
    i8 0, label %.loopexit
    i8 47, label %.critedge.us
  ]

.critedge.us:                                     ; preds = %8, %.critedge.us
  %.024.pn.us = phi ptr [ %.2.us, %.critedge.us ], [ %.024.us, %8 ]
  %.2.us = getelementptr inbounds nuw i8, ptr %.024.pn.us, i64 1
  %10 = load i8, ptr %.2.us, align 1, !tbaa !51
  switch i8 %10, label %11 [
    i8 47, label %.critedge.us
    i8 0, label %.loopexit
  ]

11:                                               ; preds = %.critedge.us
  store i8 0, ptr %.024.us, align 1, !tbaa !51
  %12 = call i32 @stat64(ptr noundef nonnull %0, ptr noundef nonnull %3) #27
  %.not33.us = icmp eq i32 %12, 0
  br i1 %.not33.us, label %28, label %13

13:                                               ; preds = %11
  %14 = tail call i32 @mkdir(ptr noundef nonnull %0, i32 noundef 511) #27
  %.not34.us = icmp eq i32 %14, 0
  br i1 %.not34.us, label %34, label %15

15:                                               ; preds = %13
  %16 = tail call ptr @__errno_location() #29
  %17 = load i32, ptr %16, align 4, !tbaa !44
  %18 = icmp eq i32 %17, 17
  br i1 %18, label %19, label %25

19:                                               ; preds = %15
  %20 = call i32 @stat64(ptr noundef nonnull %0, ptr noundef nonnull %3) #27
  %.not37.us = icmp eq i32 %20, 0
  br i1 %.not37.us, label %21, label %25

21:                                               ; preds = %19
  %22 = load i32, ptr %7, align 8, !tbaa !45
  %23 = and i32 %22, 61440
  %24 = icmp eq i32 %23, 16384
  br i1 %24, label %34, label %25

25:                                               ; preds = %21, %19, %15
  %26 = load i32, ptr %16, align 4, !tbaa !44
  %27 = icmp eq i32 %26, 2
  %..us = select i1 %27, i32 -4, i32 -1
  br label %.loopexit.sink.split

28:                                               ; preds = %11
  %29 = load i32, ptr %7, align 8, !tbaa !45
  %30 = and i32 %29, 61440
  %31 = icmp eq i32 %30, 16384
  br i1 %31, label %34, label %32

32:                                               ; preds = %28
  %33 = tail call ptr @__errno_location() #29
  store i32 20, ptr %33, align 4, !tbaa !44
  br label %.loopexit.sink.split

34:                                               ; preds = %13, %28, %21
  store i8 47, ptr %.024.us, align 1, !tbaa !51
  call void @llvm.lifetime.end.p0(i64 144, ptr nonnull %3) #27
  br label %.split.us

35:                                               ; preds = %8
  %36 = getelementptr inbounds nuw i8, ptr %.024.us, i64 1
  br label %8, !llvm.loop !52

.split:                                           ; preds = %2, %select.unfold
  %.02350 = phi ptr [ %.2, %select.unfold ], [ %6, %2 ]
  call void @llvm.lifetime.start.p0(i64 144, ptr nonnull %3) #27
  br label %37

37:                                               ; preds = %39, %.split
  %.024 = phi ptr [ %.02350, %.split ], [ %40, %39 ]
  %38 = load i8, ptr %.024, align 1, !tbaa !51
  switch i8 %38, label %39 [
    i8 0, label %.loopexit
    i8 47, label %.critedge
  ]

39:                                               ; preds = %37
  %40 = getelementptr inbounds nuw i8, ptr %.024, i64 1
  br label %37, !llvm.loop !52

.critedge:                                        ; preds = %37, %.critedge
  %.024.pn = phi ptr [ %.2, %.critedge ], [ %.024, %37 ]
  %.2 = getelementptr inbounds nuw i8, ptr %.024.pn, i64 1
  %41 = load i8, ptr %.2, align 1, !tbaa !51
  switch i8 %41, label %42 [
    i8 47, label %.critedge
    i8 0, label %.loopexit
  ]

42:                                               ; preds = %.critedge
  store i8 0, ptr %.024, align 1, !tbaa !51
  %43 = call i32 @stat64(ptr noundef nonnull %0, ptr noundef nonnull %3) #27
  %.not33 = icmp eq i32 %43, 0
  br i1 %.not33, label %44, label %50

44:                                               ; preds = %42
  %45 = load i32, ptr %7, align 8, !tbaa !45
  %46 = and i32 %45, 61440
  %47 = icmp eq i32 %46, 16384
  br i1 %47, label %select.unfold, label %48

48:                                               ; preds = %44
  %49 = tail call ptr @__errno_location() #29
  store i32 20, ptr %49, align 4, !tbaa !44
  br label %.loopexit.sink.split

50:                                               ; preds = %42
  %51 = tail call i32 @mkdir(ptr noundef nonnull %0, i32 noundef 511) #27
  %.not34 = icmp eq i32 %51, 0
  br i1 %.not34, label %65, label %52

52:                                               ; preds = %50
  %53 = tail call ptr @__errno_location() #29
  %54 = load i32, ptr %53, align 4, !tbaa !44
  %55 = icmp eq i32 %54, 17
  br i1 %55, label %56, label %62

56:                                               ; preds = %52
  %57 = call i32 @stat64(ptr noundef nonnull %0, ptr noundef nonnull %3) #27
  %.not37 = icmp eq i32 %57, 0
  br i1 %.not37, label %58, label %62

58:                                               ; preds = %56
  %59 = load i32, ptr %7, align 8, !tbaa !45
  %60 = and i32 %59, 61440
  %61 = icmp eq i32 %60, 16384
  br i1 %61, label %select.unfold, label %62

62:                                               ; preds = %58, %56, %52
  %63 = load i32, ptr %53, align 4, !tbaa !44
  %64 = icmp eq i32 %63, 2
  %. = select i1 %64, i32 -4, i32 -1
  br label %.loopexit.sink.split

65:                                               ; preds = %50
  %66 = tail call i32 @adjust_shared_perm(ptr noundef nonnull %0) #27
  %.not36 = icmp eq i32 %66, 0
  br i1 %.not36, label %select.unfold, label %.loopexit.sink.split

select.unfold:                                    ; preds = %65, %44, %58
  store i8 47, ptr %.024, align 1, !tbaa !51
  call void @llvm.lifetime.end.p0(i64 144, ptr nonnull %3) #27
  br label %.split

.loopexit.sink.split:                             ; preds = %65, %62, %48, %25, %32
  %.024.lcssa7680.sink = phi ptr [ %.024.us, %25 ], [ %.024.us, %32 ], [ %.024, %62 ], [ %.024, %48 ], [ %.024, %65 ]
  %.126.ph = phi i32 [ %..us, %25 ], [ -3, %32 ], [ %., %62 ], [ -3, %48 ], [ -2, %65 ]
  store i8 47, ptr %.024.lcssa7680.sink, align 1, !tbaa !51
  br label %.loopexit

.loopexit:                                        ; preds = %37, %.critedge, %8, %.critedge.us, %.loopexit.sink.split
  %.126 = phi i32 [ %.126.ph, %.loopexit.sink.split ], [ 0, %.critedge.us ], [ 0, %8 ], [ 0, %.critedge ], [ 0, %37 ]
  call void @llvm.lifetime.end.p0(i64 144, ptr nonnull %3) #27
  ret i32 %.126
}